target datalayout = "e-m:e-p270:32:32-p271:32:32-p272:64:64-i64:64-i128:128-f80:128-n8:16:32:64-S128"
target triple = "x86_64-pc-linux-gnu"

%struct._GtkTreeIter = type { i32, ptr, ptr, ptr }
%struct.sview_node_info_t = type { ptr, ptr, %struct._GtkTreeIter, i8, ptr, ptr, i32, ptr, ptr, ptr }

@last_model = internal global ptr null, align 8

; Function Attrs: nounwind uwtable
define internal void @_append_node_record(ptr noundef %0, ptr noundef %1) #0 {
  %3 = alloca ptr, align 8
  %4 = alloca ptr, align 8
  store ptr %0, ptr %3, align 8
  store ptr %1, ptr %4, align 8
  %5 = load ptr, ptr %4, align 8
  %6 = load ptr, ptr %3, align 8
  %7 = getelementptr inbounds nuw %struct.sview_node_info_t, ptr %6, i32 0, i32 2
  call void @gtk_tree_store_append(ptr noundef %5, ptr noundef %7, ptr noundef null)
  %8 = load ptr, ptr %4, align 8
  %9 = load ptr, ptr %3, align 8
  %10 = getelementptr inbounds nuw %struct.sview_node_info_t, ptr %9, i32 0, i32 2
  %11 = load ptr, ptr %3, align 8
  %12 = getelementptr inbounds nuw %struct.sview_node_info_t, ptr %11, i32 0, i32 6
  %13 = load i32, ptr %12, align 8
  call void (ptr, ptr, ...) @gtk_tree_store_set(ptr noundef %8, ptr noundef %10, i32 noundef 0, i32 noundef %13, i32 noundef -1)
  %14 = load ptr, ptr %3, align 8
  %15 = load ptr, ptr %4, align 8
  call void @_update_node_record(ptr noundef %14, ptr noundef %15)
  ret void
}

; Function Attrs: nounwind uwtable
define internal void @_update_info_node(ptr noundef %0, ptr noundef %1) #0 {
  %3 = alloca ptr, align 8
  %4 = alloca ptr, align 8
  %5 = alloca ptr, align 8
  %6 = alloca ptr, align 8
  %7 = alloca ptr, align 8
  %8 = alloca ptr, align 8
  store ptr %0, ptr %3, align 8
  store ptr %1, ptr %4, align 8
  call void @llvm.lifetime.start.p0(i64 8, ptr %5) #7
  %9 = load ptr, ptr %4, align 8
  %10 = call ptr @gtk_tree_view_get_model(ptr noundef %9)
  store ptr %10, ptr %5, align 8
  call void @llvm.lifetime.start.p0(i64 8, ptr %6) #7
  store ptr null, ptr %6, align 8
  call void @llvm.lifetime.start.p0(i64 8, ptr %7) #7
  store ptr null, ptr %7, align 8
  call void @llvm.lifetime.start.p0(i64 8, ptr %8) #7
  store ptr null, ptr %8, align 8
  %11 = load ptr, ptr %5, align 8
  call void @set_for_update(ptr noundef %11, i32 noundef 39)
  %12 = load ptr, ptr %3, align 8
  %13 = call ptr @list_iterator_create(ptr noundef %12)
  store ptr %13, ptr %7, align 8
  br label %14

14:                                               ; preds = %62, %2
  %15 = load ptr, ptr %7, align 8
  %16 = call ptr @list_next(ptr noundef %15)
  store ptr %16, ptr %8, align 8
  %17 = icmp ne ptr %16, null
  br i1 %17, label %18, label %63

18:                                               ; preds = %14
  %19 = load ptr, ptr @last_model, align 8
  %20 = load ptr, ptr %5, align 8
  %21 = icmp ne ptr %19, %20
  br i1 %21, label %22, label %25

22:                                               ; preds = %18
  %23 = load ptr, ptr %8, align 8
  %24 = getelementptr inbounds nuw %struct.sview_node_info_t, ptr %23, i32 0, i32 3
  store i8 0, ptr %24, align 8
  br label %25

25:                                               ; preds = %22, %18
  %26 = load ptr, ptr %8, align 8
  %27 = getelementptr inbounds nuw %struct.sview_node_info_t, ptr %26, i32 0, i32 3
  %28 = load i8, ptr %27, align 8, !range !12, !noundef !13
  %29 = trunc i8 %28 to i1
  br i1 %29, label %30, label %45

30:                                               ; preds = %25
  %31 = load ptr, ptr %5, align 8
  %32 = load ptr, ptr %8, align 8
  %33 = getelementptr inbounds nuw %struct.sview_node_info_t, ptr %32, i32 0, i32 2
  call void (ptr, ptr, ...) @gtk_tree_model_get(ptr noundef %31, ptr noundef %33, i32 noundef 21, ptr noundef %6, i32 noundef -1)
  %34 = load ptr, ptr %6, align 8
  %35 = load ptr, ptr %8, align 8
  %36 = getelementptr inbounds nuw %struct.sview_node_info_t, ptr %35, i32 0, i32 4
  %37 = load ptr, ptr %36, align 8
  %38 = call i32 @xstrcmp(ptr noundef %34, ptr noundef %37)
  %39 = icmp ne i32 %38, 0
  br i1 %39, label %40, label %43

40:                                               ; preds = %30
  %41 = load ptr, ptr %8, align 8
  %42 = getelementptr inbounds nuw %struct.sview_node_info_t, ptr %41, i32 0, i32 3
  store i8 0, ptr %42, align 8
  br label %43

43:                                               ; preds = %40, %30
  %44 = load ptr, ptr %6, align 8
  call void @g_free(ptr noundef %44)
  br label %45

45:                                               ; preds = %43, %25
  %46 = load ptr, ptr %8, align 8
  %47 = getelementptr inbounds nuw %struct.sview_node_info_t, ptr %46, i32 0, i32 3
  %48 = load i8, ptr %47, align 8, !range !12, !noundef !13
  %49 = trunc i8 %48 to i1
  br i1 %49, label %50, label %55

50:                                               ; preds = %45
  %51 = load ptr, ptr %8, align 8
  %52 = load ptr, ptr %5, align 8
  %53 = call i64 @gtk_tree_store_get_type() #8
  %54 = call ptr @g_type_check_instance_cast(ptr noundef %52, i64 noundef %53)
  call void @_update_node_record(ptr noundef %51, ptr noundef %54)
  br label %62

55:                                               ; preds = %45
  %56 = load ptr, ptr %8, align 8
  %57 = load ptr, ptr %5, align 8
  %58 = call i64 @gtk_tree_store_get_type() #8
  %59 = call ptr @g_type_check_instance_cast(ptr noundef %57, i64 noundef %58)
  call void @_append_node_record(ptr noundef %56, ptr noundef %59)
  %60 = load ptr, ptr %8, align 8
  %61 = getelementptr inbounds nuw %struct.sview_node_info_t, ptr %60, i32 0, i32 3
  store i8 1, ptr %61, align 8
  br label %62

62:                                               ; preds = %55, %50
  br label %14, !llvm.loop !19

63:                                               ; preds = %14
  %64 = load ptr, ptr %7, align 8
  call void @list_iterator_destroy(ptr noundef %64)
  %65 = load ptr, ptr %5, align 8
  call void @remove_old(ptr noundef %65, i32 noundef 39)
  %66 = load ptr, ptr %5, align 8
  store ptr %66, ptr @last_model, align 8
  call void @llvm.lifetime.end.p0(i64 8, ptr %8) #7
  call void @llvm.lifetime.end.p0(i64 8, ptr %7) #7
  call void @llvm.lifetime.end.p0(i64 8, ptr %6) #7
  call void @llvm.lifetime.end.p0(i64 8, ptr %5) #7
  ret void
}